; Function Attrs: mustprogress uwtable
define void @_ZNK10open_spiel11tiny_bridge22TinyBridgeAuctionState13AuctionStringB5cxx11Ev(ptr dead_on_unwind noalias nonnull writable sret(%"class.std::__cxx11::basic_string") align 8 %0, ptr noundef nonnull align 8 dereferenceable(97) %1) local_unnamed_addr #3 align 2 personality ptr @__gxx_personality_v0 {
  %3 = alloca %"class.std::__cxx11::basic_string", align 8
  tail call void @_ZNSt7__cxx1112basic_stringIcSt11char_traitsIcESaIcEEC1Ev(ptr noundef nonnull align 8 dereferenceable(32) %0) #27
  %4 = getelementptr inbounds nuw i8, ptr %1, i64 28
  %5 = load i32, ptr %4, align 4
  %6 = getelementptr inbounds nuw i8, ptr %1, i64 72
  %7 = getelementptr inbounds i8, ptr %1, i64 80
  %8 = sext i32 %5 to i64
  %9 = load ptr, ptr %7, align 8
  %10 = load ptr, ptr %6, align 8
  %11 = ptrtoint ptr %9 to i64
  %12 = ptrtoint ptr %10 to i64
  %13 = sub i64 %11, %12
  %14 = ashr exact i64 %13, 2
  %15 = icmp ugt i64 %14, %8
  br i1 %15, label %.lr.ph, label %._crit_edge

.lr.ph:                                           ; preds = %2, %33
  %indvars.iv = phi i64 [ %indvars.iv.next, %33 ], [ %8, %2 ]
  %16 = call noundef zeroext i1 @_ZNKSt7__cxx1112basic_stringIcSt11char_traitsIcESaIcEE5emptyEv(ptr noundef nonnull align 8 dereferenceable(32) %0) #27
  br i1 %16, label %20, label %17

17:                                               ; preds = %.lr.ph
  invoke void @_ZNSt7__cxx1112basic_stringIcSt11char_traitsIcESaIcEE9push_backEc(ptr noundef nonnull align 8 dereferenceable(32) %0, i8 noundef signext 45)
          to label %20 unwind label %18

18:                                               ; preds = %20, %17
  %19 = landingpad { ptr, i32 }
          cleanup
  br label %43

20:                                               ; preds = %17, %.lr.ph
  %21 = load i32, ptr %4, align 4
  %22 = trunc nsw i64 %indvars.iv to i32
  %23 = srem i32 %22, %21
  %24 = load ptr, ptr %6, align 8
  %25 = getelementptr inbounds i32, ptr %24, i64 %indvars.iv
  %26 = load i32, ptr %25, align 4
  %27 = sext i32 %26 to i64
  %28 = load ptr, ptr %1, align 8
  %29 = getelementptr inbounds i8, ptr %28, i64 56
  %30 = load ptr, ptr %29, align 8
  invoke void %30(ptr dead_on_unwind nonnull writable sret(%"class.std::__cxx11::basic_string") align 8 %3, ptr noundef nonnull align 8 dereferenceable(97) %1, i32 noundef %23, i64 noundef %27)
          to label %31 unwind label %18

31:                                               ; preds = %20
  %32 = invoke noundef nonnull align 8 dereferenceable(32) ptr @_ZNSt7__cxx1112basic_stringIcSt11char_traitsIcESaIcEE6appendERKS4_(ptr noundef nonnull align 8 dereferenceable(32) %0, ptr noundef nonnull align 8 dereferenceable(32) %3)
          to label %33 unwind label %41

33:                                               ; preds = %31
  call void @_ZNSt7__cxx1112basic_stringIcSt11char_traitsIcESaIcEED1Ev(ptr noundef nonnull align 8 dereferenceable(32) %3) #27
  %indvars.iv.next = add nuw nsw i64 %indvars.iv, 1
  %34 = load ptr, ptr %7, align 8
  %35 = load ptr, ptr %6, align 8
  %36 = ptrtoint ptr %34 to i64
  %37 = ptrtoint ptr %35 to i64
  %38 = sub i64 %36, %37
  %39 = ashr exact i64 %38, 2
  %40 = icmp ugt i64 %39, %indvars.iv.next
  br i1 %40, label %.lr.ph, label %._crit_edge, !llvm.loop !50

41:                                               ; preds = %31
  %42 = landingpad { ptr, i32 }
          cleanup
  call void @_ZNSt7__cxx1112basic_stringIcSt11char_traitsIcESaIcEED1Ev(ptr noundef nonnull align 8 dereferenceable(32) %3) #27
  br label %43

._crit_edge:                                      ; preds = %33, %2
  ret void

43:                                               ; preds = %41, %18
  %.pn = phi { ptr, i32 } [ %42, %41 ], [ %19, %18 ]
  call void @_ZNSt7__cxx1112basic_stringIcSt11char_traitsIcESaIcEED1Ev(ptr noundef nonnull align 8 dereferenceable(32) %0) #27
  resume { ptr, i32 } %.pn
}